# SymbolsHelper-Confirmed: 5.27.5 amd64
libKPipeWireRecord.so.5 libkpipewirerecord5 #MINVER#
* Build-Depends-Package: libkpipewire-dev
 _ZN14PipeWireRecord10errorFoundERK7QString@Base 5.25.80
 _ZN14PipeWireRecord10setEncoderERK10QByteArray@Base 5.25.80
 _ZN14PipeWireRecord11qt_metacallEN11QMetaObject4CallEiPPv@Base 5.25.80
 _ZN14PipeWireRecord11qt_metacastEPKc@Base 5.25.80
 _ZN14PipeWireRecord12stateChangedEv@Base 5.25.80
 _ZN14PipeWireRecord13activeChangedEb@Base 5.25.80
 _ZN14PipeWireRecord13nodeIdChangedEj@Base 5.25.80
 _ZN14PipeWireRecord13outputChangedERK7QString@Base 5.25.80
 _ZN14PipeWireRecord14encoderChangedEv@Base 5.27.5
 _ZN14PipeWireRecord16staticMetaObjectE@Base 5.25.80
 _ZN14PipeWireRecord5setFdEj@Base 5.25.80
 _ZN14PipeWireRecord7refreshEv@Base 5.25.80
 _ZN14PipeWireRecord9extensionEv@Base 5.26.90
 _ZN14PipeWireRecord9fdChangedEj@Base 5.25.80
 _ZN14PipeWireRecord9setActiveEb@Base 5.25.80
 _ZN14PipeWireRecord9setNodeIdEj@Base 5.25.80
 _ZN14PipeWireRecord9setOutputERK7QString@Base 5.25.80
 _ZN14PipeWireRecordC1EP7QObject@Base 5.25.80
 _ZN14PipeWireRecordC2EP7QObject@Base 5.25.80
 _ZN14PipeWireRecordD0Ev@Base 5.25.80
 _ZN14PipeWireRecordD1Ev@Base 5.25.80
 _ZN14PipeWireRecordD2Ev@Base 5.25.80
 _ZNK14PipeWireRecord10metaObjectEv@Base 5.25.80
 _ZNK14PipeWireRecord16currentExtensionEv@Base 5.27.5
 _ZNK14PipeWireRecord17suggestedEncodersEv@Base 5.27.5
 _ZNK14PipeWireRecord2fdEv@Base 5.25.80
 _ZNK14PipeWireRecord5stateEv@Base 5.25.80
 _ZNK14PipeWireRecord6nodeIdEv@Base 5.25.80
 _ZNK14PipeWireRecord6outputEv@Base 5.25.80
 _ZNK14PipeWireRecord7encoderEv@Base 5.27.5
 _ZNK14PipeWireRecord8isActiveEv@Base 5.25.80
 _ZTI14PipeWireRecord@Base 5.25.80
 _ZTS14PipeWireRecord@Base 5.25.80
 _ZTV14PipeWireRecord@Base 5.25.80
